; Function Attrs: nofree norecurse nosync nounwind memory(argmem: readwrite) uwtable
define internal void @hor_8x8_c(ptr noundef writeonly captures(none) %0, i64 noundef %1, ptr noundef readonly captures(none) %2, ptr readnone captures(none) %3) #2 {
  %5 = lshr i64 %1, 1
  br label %6

6:                                                ; preds = %4, %6
  %indvars.iv = phi i64 [ 0, %4 ], [ %indvars.iv.next, %6 ]
  %.01213 = phi ptr [ %0, %4 ], [ %13, %6 ]
  %7 = sub nuw nsw i64 7, %indvars.iv
  %8 = getelementptr inbounds nuw i16, ptr %2, i64 %7
  %9 = load i16, ptr %8, align 2, !tbaa !9
  %10 = zext i16 %9 to i64
  %11 = mul nuw i64 %10, 281479271743489
  store i64 %11, ptr %.01213, align 8, !tbaa !8
  %12 = getelementptr inbounds nuw i8, ptr %.01213, i64 8
  store i64 %11, ptr %12, align 8, !tbaa !8
  %13 = getelementptr inbounds nuw i16, ptr %.01213, i64 %5
  %indvars.iv.next = add nuw nsw i64 %indvars.iv, 1
  %exitcond.not = icmp eq i64 %indvars.iv.next, 8
  br i1 %exitcond.not, label %14, label %6, !llvm.loop !14

14:                                               ; preds = %6
  ret void
}